; Function Attrs: mustprogress uwtable
define internal fastcc void @_ZN9grpc_core12_GLOBAL__N_118CreateChannelStackERKNS_11ChannelArgsESt6vectorIPK19grpc_channel_filterSaIS7_EE(ptr noalias align 8 %agg.result, ptr noundef nonnull align 8 dereferenceable(8) %args, ptr nocapture noundef readonly %filters) unnamed_addr #3 personality ptr @__gxx_personality_v0 {
entry:
  %builder = alloca %"class.grpc_core::ChannelStackBuilderImpl", align 8
  call void @_ZN9grpc_core19ChannelStackBuilderC2EPKc23grpc_channel_stack_typeRKNS_11ChannelArgsE(ptr noundef nonnull align 8 dereferenceable(88) %builder, ptr noundef nonnull @.str.7, i32 noundef 2, ptr noundef nonnull align 8 dereferenceable(8) %args)
  store ptr getelementptr inbounds ({ [4 x ptr] }, ptr @_ZTVN9grpc_core23ChannelStackBuilderImplE, i64 0, i32 0, i64 2), ptr %builder, align 8
  %0 = load ptr, ptr %filters, align 8
  %_M_finish.i = getelementptr inbounds i8, ptr %filters, i64 8
  %1 = load ptr, ptr %_M_finish.i, align 8
  %cmp.i.not6 = icmp eq ptr %0, %1
  br i1 %cmp.i.not6, label %for.end, label %for.body

for.body:                                         ; preds = %entry, %for.inc
  %__begin2.sroa.0.07 = phi ptr [ %incdec.ptr.i, %for.inc ], [ %0, %entry ]
  %2 = load ptr, ptr %__begin2.sroa.0.07, align 8
  invoke void @_ZN9grpc_core19ChannelStackBuilder12AppendFilterEPK19grpc_channel_filter(ptr noundef nonnull align 8 dereferenceable(88) %builder, ptr noundef %2)
          to label %for.inc unwind label %lpad.loopexit

for.inc:                                          ; preds = %for.body
  %incdec.ptr.i = getelementptr inbounds i8, ptr %__begin2.sroa.0.07, i64 8
  %cmp.i.not = icmp eq ptr %incdec.ptr.i, %1
  br i1 %cmp.i.not, label %for.end, label %for.body

lpad.loopexit:                                    ; preds = %for.body
  %lpad.loopexit4 = landingpad { ptr, i32 }
          cleanup
  br label %lpad

lpad.loopexit.split-lp:                           ; preds = %for.end
  %lpad.loopexit.split-lp5 = landingpad { ptr, i32 }
          cleanup
  br label %lpad

lpad:                                             ; preds = %lpad.loopexit.split-lp, %lpad.loopexit
  %lpad.phi = phi { ptr, i32 } [ %lpad.loopexit4, %lpad.loopexit ], [ %lpad.loopexit.split-lp5, %lpad.loopexit.split-lp ]
  call void @_ZN9grpc_core23ChannelStackBuilderImplD2Ev(ptr noundef nonnull align 8 dereferenceable(88) %builder) #17
  resume { ptr, i32 } %lpad.phi

for.end:                                          ; preds = %for.inc, %entry
  invoke void @_ZN9grpc_core23ChannelStackBuilderImpl5BuildEv(ptr sret(%"class.absl::lts_20230802::StatusOr") align 8 %agg.result, ptr noundef nonnull align 8 dereferenceable(88) %builder)
          to label %invoke.cont6 unwind label %lpad.loopexit.split-lp

invoke.cont6:                                     ; preds = %for.end
  store ptr getelementptr inbounds ({ [4 x ptr] }, ptr @_ZTVN9grpc_core19ChannelStackBuilderE, i64 0, i32 0, i64 2), ptr %builder, align 8
  %stack_.i.i = getelementptr inbounds i8, ptr %builder, i64 64
  %3 = load ptr, ptr %stack_.i.i, align 8
  %tobool.not.i.i.i.i.i = icmp eq ptr %3, null
  br i1 %tobool.not.i.i.i.i.i, label %_ZN9grpc_core23ChannelStackBuilderImplD2Ev.exit, label %if.then.i.i.i.i.i

if.then.i.i.i.i.i:                                ; preds = %invoke.cont6
  call void @_ZdlPv(ptr noundef nonnull %3) #19
  br label %_ZN9grpc_core23ChannelStackBuilderImplD2Ev.exit

_ZN9grpc_core23ChannelStackBuilderImplD2Ev.exit:  ; preds = %invoke.cont6, %if.then.i.i.i.i.i
  %args_.i.i = getelementptr inbounds i8, ptr %builder, i64 56
  call void @_ZN9grpc_core11ChannelArgsD1Ev(ptr noundef nonnull align 8 dereferenceable(8) %args_.i.i) #17
  %target_.i.i = getelementptr inbounds i8, ptr %builder, i64 24
  call void @_ZNSt7__cxx1112basic_stringIcSt11char_traitsIcESaIcEED1Ev(ptr noundef nonnull align 8 dereferenceable(32) %target_.i.i) #17
  ret void
}